ccopy_reg
_reconstructor
p0
(cgoogle.oauth2.credentials
Credentials
p1
c__builtin__
object
p2
Ntp3
Rp4
(dp5
S'_quota_project_id'
p6
NsS'_token_uri'
p7
Vhttps://oauth2.googleapis.com/token
p8
sS'_client_secret'
p9
VhzJ_h_Dt2ZyA8h7tMbqyL0dQ
p10
sS'_id_token'
p11
NsS'token'
p12
Vya29.a0AfH6SMD_l6I25i6dbqqeqpzv5_iwl_f3q-PkmIGfncXnMUXxfV13K_4OLUe28idj6g0uReS2TVu9BYawQDkbpOtxDgdcmHGMS1um2j_7Jdzqt3oO2bZJsau65X1k8ifZ8IFh_QpVgcO_pz03KImtFjuu9KMwP4EhSqA
p13
sS'_refresh_token'
p14
V1//06JnNBYsrXxZlCgYIARAAGAYSNwF-L9IrugOUkoYPbUoF4rlCtNUY6xY9Ed5DYb6WSORGtxM3wKCr-YA2nnbODzaCZ_d9oVZ3b3k
p15
sS'_scopes'
p16
(lp17
S'https://www.googleapis.com/auth/drive.metadata.readonly'
p18
asS'_client_id'
p19
V147878028179-l9p2rehhr6c46hdm5f38ss6c2osq0n1t.apps.googleusercontent.com
p20
sS'expiry'
p21
cdatetime
datetime
p22
(S'\x07\xe4\t\x19\x034\x13\x06\xeb\xca'
p23
tp24
Rp25
sb.